; Function Attrs: mustprogress nounwind uwtable
define dso_local void @_ZN4node9inspector13SocketSession8Delegate9OnWsFrameERKSt6vectorIcSaIcEE(ptr nocapture noundef nonnull readonly align 8 dereferenceable(20) %this, ptr nocapture noundef nonnull readonly align 8 dereferenceable(24) %data) unnamed_addr #0 align 2 {
entry:
  %ref.tmp = alloca %"class.std::__cxx11::basic_string", align 8
  %ref.tmp3 = alloca %"class.std::allocator", align 1
  %server_ = getelementptr inbounds i8, ptr %this, i64 8
  %0 = load ptr, ptr %server_, align 8
  %session_id_ = getelementptr inbounds i8, ptr %this, i64 16
  %1 = load i32, ptr %session_id_, align 8
  %2 = load ptr, ptr %data, align 8
  %_M_finish.i = getelementptr inbounds i8, ptr %data, i64 8
  %3 = load ptr, ptr %_M_finish.i, align 8
  %sub.ptr.lhs.cast.i = ptrtoint ptr %3 to i64
  %sub.ptr.rhs.cast.i = ptrtoint ptr %2 to i64
  %sub.ptr.sub.i = sub i64 %sub.ptr.lhs.cast.i, %sub.ptr.rhs.cast.i
  call void @_ZNSaIcEC1Ev(ptr noundef nonnull align 1 dereferenceable(1) %ref.tmp3) #19
  call void @_ZNSt7__cxx1112basic_stringIcSt11char_traitsIcESaIcEEC1EPKcmRKS3_(ptr noundef nonnull align 8 dereferenceable(32) %ref.tmp, ptr noundef %2, i64 noundef %sub.ptr.sub.i, ptr noundef nonnull align 1 dereferenceable(1) %ref.tmp3) #19
  %delegate_.i = getelementptr inbounds i8, ptr %0, i64 8
  %4 = load ptr, ptr %delegate_.i, align 8
  %vtable.i = load ptr, ptr %4, align 8
  %vfn.i = getelementptr inbounds i8, ptr %vtable.i, i64 24
  %5 = load ptr, ptr %vfn.i, align 8
  call void %5(ptr noundef nonnull align 8 dereferenceable(8) %4, i32 noundef %1, ptr noundef nonnull align 8 dereferenceable(32) %ref.tmp) #19
  call void @_ZNSt7__cxx1112basic_stringIcSt11char_traitsIcESaIcEED1Ev(ptr noundef nonnull align 8 dereferenceable(32) %ref.tmp) #19
  call void @_ZNSaIcED1Ev(ptr noundef nonnull align 1 dereferenceable(1) %ref.tmp3) #19
  ret void
}